target datalayout = "e-m:e-p270:32:32-p271:32:32-p272:64:64-i64:64-i128:128-f80:128-n8:16:32:64-S128"
target triple = "x86_64-pc-linux-gnu"

@.str = private unnamed_addr constant [8 x i8] c"initial\00", align 1
@.str.1 = private unnamed_addr constant [11 x i8] c"abs_layout\00", align 1
@.str.2 = private unnamed_addr constant [8 x i8] c"stretch\00", align 1
@.str.3 = private unnamed_addr constant [18 x i8] c"multiline_stretch\00", align 1
@.str.4 = private unnamed_addr constant [12 x i8] c"flex_layout\00", align 1
@.str.5 = private unnamed_addr constant [8 x i8] c"measure\00", align 1
@.str.6 = private unnamed_addr constant [12 x i8] c"abs_measure\00", align 1
@.str.7 = private unnamed_addr constant [13 x i8] c"flex_measure\00", align 1
@.str.8 = private unnamed_addr constant [8 x i8] c"unknown\00", align 1

; Function Attrs: mustprogress nounwind uwtable
define hidden noundef ptr @_ZN8facebook4yoga24LayoutPassReasonToStringENS0_16LayoutPassReasonE(i32 noundef %0) #0 {
  %2 = alloca ptr, align 8
  %3 = alloca i32, align 4
  store i32 %0, ptr %3, align 4, !tbaa !4
  %4 = load i32, ptr %3, align 4, !tbaa !4
  switch i32 %4, label %13 [
    i32 0, label %5
    i32 1, label %6
    i32 2, label %7
    i32 3, label %8
    i32 4, label %9
    i32 5, label %10
    i32 6, label %11
    i32 7, label %12
  ]

5:                                                ; preds = %1
  store ptr @.str, ptr %2, align 8
  br label %14

6:                                                ; preds = %1
  store ptr @.str.1, ptr %2, align 8
  br label %14

7:                                                ; preds = %1
  store ptr @.str.2, ptr %2, align 8
  br label %14

8:                                                ; preds = %1
  store ptr @.str.3, ptr %2, align 8
  br label %14

9:                                                ; preds = %1
  store ptr @.str.4, ptr %2, align 8
  br label %14

10:                                               ; preds = %1
  store ptr @.str.5, ptr %2, align 8
  br label %14

11:                                               ; preds = %1
  store ptr @.str.6, ptr %2, align 8
  br label %14

12:                                               ; preds = %1
  store ptr @.str.7, ptr %2, align 8
  br label %14

13:                                               ; preds = %1
  store ptr @.str.8, ptr %2, align 8
  br label %14

14:                                               ; preds = %13, %12, %11, %10, %9, %8, %7, %6, %5
  %15 = load ptr, ptr %2, align 8
  ret ptr %15
}